target datalayout = "e-m:e-p270:32:32-p271:32:32-p272:64:64-i64:64-i128:128-f80:128-n8:16:32:64-S128"
target triple = "x86_64-unknown-linux-gnu"

%"class.proxygen::Window" = type { i32, i32 }

; Function Attrs: mustprogress nounwind uwtable
define noundef i32 @_ZNK8proxygen6Window7getSizeEv(ptr noundef nonnull align 4 dereferenceable(8) %this) #1 align 2 {
entry:
  %this.addr = alloca ptr, align 8
  store ptr %this, ptr %this.addr, align 8
  %this1 = load ptr, ptr %this.addr, align 8
  %capacity_ = getelementptr inbounds %"class.proxygen::Window", ptr %this1, i32 0, i32 1
  %0 = load i32, ptr %capacity_, align 4
  %outstanding_ = getelementptr inbounds %"class.proxygen::Window", ptr %this1, i32 0, i32 0
  %1 = load i32, ptr %outstanding_, align 4
  %sub = sub nsw i32 %0, %1
  ret i32 %sub
}

; Function Attrs: mustprogress nounwind uwtable
define noundef i32 @_ZNK8proxygen6Window18getNonNegativeSizeEv(ptr noundef nonnull align 4 dereferenceable(8) %this) #1 align 2 {
entry:
  %this.addr = alloca ptr, align 8
  %size = alloca i32, align 4
  store ptr %this, ptr %this.addr, align 8
  %this1 = load ptr, ptr %this.addr, align 8
  %call = call noundef i32 @_ZNK8proxygen6Window7getSizeEv(ptr noundef nonnull align 4 dereferenceable(8) %this1)
  store i32 %call, ptr %size, align 4
  %0 = load i32, ptr %size, align 4
  %cmp = icmp sgt i32 %0, 0
  br i1 %cmp, label %cond.true, label %cond.false

cond.true:                                        ; preds = %entry
  %1 = load i32, ptr %size, align 4
  br label %cond.end

cond.false:                                       ; preds = %entry
  br label %cond.end

cond.end:                                         ; preds = %cond.false, %cond.true
  %cond = phi i32 [ %1, %cond.true ], [ 0, %cond.false ]
  ret i32 %cond
}