; Function Attrs: mustprogress nofree norecurse nosync nounwind willreturn memory(argmem: read) uwtable
define noundef range(i32 0, -2147483648) i32 @_ZNK8proxygen6Window18getNonNegativeSizeEv(ptr noundef nonnull readonly align 4 captures(none) dereferenceable(8) %this) local_unnamed_addr #3 align 2 {
entry:
  %capacity_.i = getelementptr inbounds nuw i8, ptr %this, i64 4
  %0 = load i32, ptr %capacity_.i, align 4
  %1 = load i32, ptr %this, align 4
  %sub.i = sub nsw i32 %0, %1
  %cond = tail call i32 @llvm.smax.i32(i32 %sub.i, i32 0)
  ret i32 %cond
}